(dp1
S'failed'
p2
(lp3
sS'source_names'
p4
(lp5
S'.'
asS'ids'
p6
(dp7
I1
(S'/Users/jlantz/dev/CumulusCI/cumulusci/salesforce_api/tests/test_metadata.py'
S'cumulusci.salesforce_api.tests.test_metadata'
p8
S'BaseTestMetadataApi.test_build_endpoint_url'
tp9
sI2
(S'/Users/jlantz/dev/CumulusCI/cumulusci/salesforce_api/tests/test_metadata.py'
g8
S'BaseTestMetadataApi.test_build_endpoint_url_apiversion'
tp10
sI3
(S'/Users/jlantz/dev/CumulusCI/cumulusci/salesforce_api/tests/test_metadata.py'
g8
S'BaseTestMetadataApi.test_build_endpoint_url_mydomain'
tp11
sI4
(S'/Users/jlantz/dev/CumulusCI/cumulusci/salesforce_api/tests/test_metadata.py'
g8
S'BaseTestMetadataApi.test_build_envelope_result'
tp12
sI5
(S'/Users/jlantz/dev/CumulusCI/cumulusci/salesforce_api/tests/test_metadata.py'
g8
S'BaseTestMetadataApi.test_build_envelope_start'
tp13
sI6
(S'/Users/jlantz/dev/CumulusCI/cumulusci/salesforce_api/tests/test_metadata.py'
g8
S'BaseTestMetadataApi.test_build_envelope_status'
tp14
sI7
(S'/Users/jlantz/dev/CumulusCI/cumulusci/salesforce_api/tests/test_metadata.py'
g8
S'BaseTestMetadataApi.test_build_headers'
tp15
sI8
(S'/Users/jlantz/dev/CumulusCI/cumulusci/salesforce_api/tests/test_metadata.py'
g8
S'BaseTestMetadataApi.test_call_faultcode'
tp16
sI9
(S'/Users/jlantz/dev/CumulusCI/cumulusci/salesforce_api/tests/test_metadata.py'
g8
S'BaseTestMetadataApi.test_call_success'
tp17
sI10
(S'/Users/jlantz/dev/CumulusCI/cumulusci/salesforce_api/tests/test_metadata.py'
g8
S'BaseTestMetadataApi.test_get_check_interval'
tp18
sI11
(S'/Users/jlantz/dev/CumulusCI/cumulusci/salesforce_api/tests/test_metadata.py'
g8
S'BaseTestMetadataApi.test_get_element_value'
tp19
sI12
(S'/Users/jlantz/dev/CumulusCI/cumulusci/salesforce_api/tests/test_metadata.py'
g8
S'BaseTestMetadataApi.test_get_element_value_empty'
tp20
sI13
(S'/Users/jlantz/dev/CumulusCI/cumulusci/salesforce_api/tests/test_metadata.py'
g8
S'BaseTestMetadataApi.test_get_element_value_not_found'
tp21
sI14
(S'/Users/jlantz/dev/CumulusCI/cumulusci/salesforce_api/tests/test_metadata.py'
g8
S'BaseTestMetadataApi.test_get_response_faultcode'
tp22
sI15
(S'/Users/jlantz/dev/CumulusCI/cumulusci/salesforce_api/tests/test_metadata.py'
g8
S'BaseTestMetadataApi.test_get_response_faultcode_and_string'
tp23
sI16
(S'/Users/jlantz/dev/CumulusCI/cumulusci/salesforce_api/tests/test_metadata.py'
g8
S'BaseTestMetadataApi.test_get_response_faultcode_invalid_session_no_refresh'
tp24
sI17
(S'/Users/jlantz/dev/CumulusCI/cumulusci/salesforce_api/tests/test_metadata.py'
g8
S'BaseTestMetadataApi.test_get_response_faultcode_invalid_session_refresh'
tp25
sI18
(S'/Users/jlantz/dev/CumulusCI/cumulusci/salesforce_api/tests/test_metadata.py'
g8
S'BaseTestMetadataApi.test_get_response_start_error_500'
tp26
sI19
(S'/Users/jlantz/dev/CumulusCI/cumulusci/salesforce_api/tests/test_metadata.py'
g8
S'BaseTestMetadataApi.test_get_response_status_error_500'
tp27
sI20
(S'/Users/jlantz/dev/CumulusCI/cumulusci/salesforce_api/tests/test_metadata.py'
g8
S'BaseTestMetadataApi.test_get_response_status_loop_twice'
tp28
sI21
(S'/Users/jlantz/dev/CumulusCI/cumulusci/salesforce_api/tests/test_metadata.py'
g8
S'BaseTestMetadataApi.test_get_response_status_no_loop'
tp29
sI22
(S'/Users/jlantz/dev/CumulusCI/cumulusci/salesforce_api/tests/test_metadata.py'
g8
S'BaseTestMetadataApi.test_init'
tp30
sI23
(S'/Users/jlantz/dev/CumulusCI/cumulusci/salesforce_api/tests/test_metadata.py'
g8
S'BaseTestMetadataApi.test_process_response_status_done_is_true'
tp31
sI24
(S'/Users/jlantz/dev/CumulusCI/cumulusci/salesforce_api/tests/test_metadata.py'
g8
S'BaseTestMetadataApi.test_process_response_status_in_progress'
tp32
sI25
(S'/Users/jlantz/dev/CumulusCI/cumulusci/salesforce_api/tests/test_metadata.py'
g8
S'BaseTestMetadataApi.test_process_response_status_in_progress_state_detail'
tp33
sI26
(S'/Users/jlantz/dev/CumulusCI/cumulusci/salesforce_api/tests/test_metadata.py'
g8
S'BaseTestMetadataApi.test_process_response_status_no_done_element'
tp34
sI27
(S'/Users/jlantz/dev/CumulusCI/cumulusci/salesforce_api/tests/test_metadata.py'
g8
S'BaseTestMetadataApi.test_process_response_status_pending'
tp35
sI28
(S'/Users/jlantz/dev/CumulusCI/cumulusci/salesforce_api/tests/test_metadata.py'
g8
S'TestApiDeploy.test_build_endpoint_url'
tp36
sI29
(S'/Users/jlantz/dev/CumulusCI/cumulusci/salesforce_api/tests/test_metadata.py'
g8
S'TestApiDeploy.test_build_endpoint_url_apiversion'
tp37
sI30
(S'/Users/jlantz/dev/CumulusCI/cumulusci/salesforce_api/tests/test_metadata.py'
g8
S'TestApiDeploy.test_build_endpoint_url_mydomain'
tp38
sI31
(S'/Users/jlantz/dev/CumulusCI/cumulusci/salesforce_api/tests/test_metadata.py'
g8
S'TestApiDeploy.test_build_envelope_result'
tp39
sI32
(S'/Users/jlantz/dev/CumulusCI/cumulusci/salesforce_api/tests/test_metadata.py'
g8
S'TestApiDeploy.test_build_envelope_start'
tp40
sI33
(S'/Users/jlantz/dev/CumulusCI/cumulusci/salesforce_api/tests/test_metadata.py'
g8
S'TestApiDeploy.test_build_envelope_status'
tp41
sI34
(S'/Users/jlantz/dev/CumulusCI/cumulusci/salesforce_api/tests/test_metadata.py'
g8
S'TestApiDeploy.test_build_headers'
tp42
sI35
(S'/Users/jlantz/dev/CumulusCI/cumulusci/salesforce_api/tests/test_metadata.py'
g8
S'TestApiDeploy.test_call_faultcode'
tp43
sI36
(S'/Users/jlantz/dev/CumulusCI/cumulusci/salesforce_api/tests/test_metadata.py'
g8
S'TestApiDeploy.test_call_success'
tp44
sI37
(S'/Users/jlantz/dev/CumulusCI/cumulusci/salesforce_api/tests/test_metadata.py'
g8
S'TestApiDeploy.test_get_check_interval'
tp45
sI38
(S'/Users/jlantz/dev/CumulusCI/cumulusci/salesforce_api/tests/test_metadata.py'
g8
S'TestApiDeploy.test_get_element_value'
tp46
sI39
(S'/Users/jlantz/dev/CumulusCI/cumulusci/salesforce_api/tests/test_metadata.py'
g8
S'TestApiDeploy.test_get_element_value_empty'
tp47
sI40
(S'/Users/jlantz/dev/CumulusCI/cumulusci/salesforce_api/tests/test_metadata.py'
g8
S'TestApiDeploy.test_get_element_value_not_found'
tp48
sI41
(S'/Users/jlantz/dev/CumulusCI/cumulusci/salesforce_api/tests/test_metadata.py'
g8
S'TestApiDeploy.test_get_response_faultcode'
tp49
sI42
(S'/Users/jlantz/dev/CumulusCI/cumulusci/salesforce_api/tests/test_metadata.py'
g8
S'TestApiDeploy.test_get_response_faultcode_and_string'
tp50
sI43
(S'/Users/jlantz/dev/CumulusCI/cumulusci/salesforce_api/tests/test_metadata.py'
g8
S'TestApiDeploy.test_get_response_faultcode_invalid_session_no_refresh'
tp51
sI44
(S'/Users/jlantz/dev/CumulusCI/cumulusci/salesforce_api/tests/test_metadata.py'
g8
S'TestApiDeploy.test_get_response_faultcode_invalid_session_refresh'
tp52
sI45
(S'/Users/jlantz/dev/CumulusCI/cumulusci/salesforce_api/tests/test_metadata.py'
g8
S'TestApiDeploy.test_get_response_start_error_500'
tp53
sI46
(S'/Users/jlantz/dev/CumulusCI/cumulusci/salesforce_api/tests/test_metadata.py'
g8
S'TestApiDeploy.test_get_response_status_error_500'
tp54
sI47
(S'/Users/jlantz/dev/CumulusCI/cumulusci/salesforce_api/tests/test_metadata.py'
g8
S'TestApiDeploy.test_get_response_status_loop_twice'
tp55
sI48
(S'/Users/jlantz/dev/CumulusCI/cumulusci/salesforce_api/tests/test_metadata.py'
g8
S'TestApiDeploy.test_get_response_status_no_loop'
tp56
sI49
(S'/Users/jlantz/dev/CumulusCI/cumulusci/salesforce_api/tests/test_metadata.py'
g8
S'TestApiDeploy.test_init'
tp57
sI50
(S'/Users/jlantz/dev/CumulusCI/cumulusci/salesforce_api/tests/test_metadata.py'
g8
S'TestApiDeploy.test_process_response_status_done_is_true'
tp58
sI51
(S'/Users/jlantz/dev/CumulusCI/cumulusci/salesforce_api/tests/test_metadata.py'
g8
S'TestApiDeploy.test_process_response_status_in_progress'
tp59
sI52
(S'/Users/jlantz/dev/CumulusCI/cumulusci/salesforce_api/tests/test_metadata.py'
g8
S'TestApiDeploy.test_process_response_status_in_progress_state_detail'
tp60
sI53
(S'/Users/jlantz/dev/CumulusCI/cumulusci/salesforce_api/tests/test_metadata.py'
g8
S'TestApiDeploy.test_process_response_status_no_done_element'
tp61
sI54
(S'/Users/jlantz/dev/CumulusCI/cumulusci/salesforce_api/tests/test_metadata.py'
g8
S'TestApiDeploy.test_process_response_status_pending'
tp62
sI55
(S'/Users/jlantz/dev/CumulusCI/cumulusci/salesforce_api/tests/test_metadata.py'
g8
S'TestApiListMetadata.test_build_endpoint_url'
tp63
sI56
(S'/Users/jlantz/dev/CumulusCI/cumulusci/salesforce_api/tests/test_metadata.py'
g8
S'TestApiListMetadata.test_build_endpoint_url_apiversion'
tp64
sI57
(S'/Users/jlantz/dev/CumulusCI/cumulusci/salesforce_api/tests/test_metadata.py'
g8
S'TestApiListMetadata.test_build_endpoint_url_mydomain'
tp65
sI58
(S'/Users/jlantz/dev/CumulusCI/cumulusci/salesforce_api/tests/test_metadata.py'
g8
S'TestApiListMetadata.test_build_envelope_result'
tp66
sI59
(S'/Users/jlantz/dev/CumulusCI/cumulusci/salesforce_api/tests/test_metadata.py'
g8
S'TestApiListMetadata.test_build_envelope_start'
tp67
sI60
(S'/Users/jlantz/dev/CumulusCI/cumulusci/salesforce_api/tests/test_metadata.py'
g8
S'TestApiListMetadata.test_build_envelope_status'
tp68
sI61
(S'/Users/jlantz/dev/CumulusCI/cumulusci/salesforce_api/tests/test_metadata.py'
g8
S'TestApiListMetadata.test_build_headers'
tp69
sI62
(S'/Users/jlantz/dev/CumulusCI/cumulusci/salesforce_api/tests/test_metadata.py'
g8
S'TestApiListMetadata.test_call_faultcode'
tp70
sI63
(S'/Users/jlantz/dev/CumulusCI/cumulusci/salesforce_api/tests/test_metadata.py'
g8
S'TestApiListMetadata.test_call_success'
tp71
sI64
(S'/Users/jlantz/dev/CumulusCI/cumulusci/salesforce_api/tests/test_metadata.py'
g8
S'TestApiListMetadata.test_get_check_interval'
tp72
sI65
(S'/Users/jlantz/dev/CumulusCI/cumulusci/salesforce_api/tests/test_metadata.py'
g8
S'TestApiListMetadata.test_get_element_value'
tp73
sI66
(S'/Users/jlantz/dev/CumulusCI/cumulusci/salesforce_api/tests/test_metadata.py'
g8
S'TestApiListMetadata.test_get_element_value_empty'
tp74
sI67
(S'/Users/jlantz/dev/CumulusCI/cumulusci/salesforce_api/tests/test_metadata.py'
g8
S'TestApiListMetadata.test_get_element_value_not_found'
tp75
sI68
(S'/Users/jlantz/dev/CumulusCI/cumulusci/salesforce_api/tests/test_metadata.py'
g8
S'TestApiListMetadata.test_get_response_faultcode'
tp76
sI69
(S'/Users/jlantz/dev/CumulusCI/cumulusci/salesforce_api/tests/test_metadata.py'
g8
S'TestApiListMetadata.test_get_response_faultcode_and_string'
tp77
sI70
(S'/Users/jlantz/dev/CumulusCI/cumulusci/salesforce_api/tests/test_metadata.py'
g8
S'TestApiListMetadata.test_get_response_faultcode_invalid_session_no_refresh'
tp78
sI71
(S'/Users/jlantz/dev/CumulusCI/cumulusci/salesforce_api/tests/test_metadata.py'
g8
S'TestApiListMetadata.test_get_response_faultcode_invalid_session_refresh'
tp79
sI72
(S'/Users/jlantz/dev/CumulusCI/cumulusci/salesforce_api/tests/test_metadata.py'
g8
S'TestApiListMetadata.test_get_response_start_error_500'
tp80
sI73
(S'/Users/jlantz/dev/CumulusCI/cumulusci/salesforce_api/tests/test_metadata.py'
g8
S'TestApiListMetadata.test_get_response_status_error_500'
tp81
sI74
(S'/Users/jlantz/dev/CumulusCI/cumulusci/salesforce_api/tests/test_metadata.py'
g8
S'TestApiListMetadata.test_get_response_status_loop_twice'
tp82
sI75
(S'/Users/jlantz/dev/CumulusCI/cumulusci/salesforce_api/tests/test_metadata.py'
g8
S'TestApiListMetadata.test_get_response_status_no_loop'
tp83
sI76
(S'/Users/jlantz/dev/CumulusCI/cumulusci/salesforce_api/tests/test_metadata.py'
g8
S'TestApiListMetadata.test_init'
tp84
sI77
(S'/Users/jlantz/dev/CumulusCI/cumulusci/salesforce_api/tests/test_metadata.py'
g8
S'TestApiListMetadata.test_process_response_status_done_is_true'
tp85
sI78
(S'/Users/jlantz/dev/CumulusCI/cumulusci/salesforce_api/tests/test_metadata.py'
g8
S'TestApiListMetadata.test_process_response_status_in_progress'
tp86
sI79
(S'/Users/jlantz/dev/CumulusCI/cumulusci/salesforce_api/tests/test_metadata.py'
g8
S'TestApiListMetadata.test_process_response_status_in_progress_state_detail'
tp87
sI80
(S'/Users/jlantz/dev/CumulusCI/cumulusci/salesforce_api/tests/test_metadata.py'
g8
S'TestApiListMetadata.test_process_response_status_no_done_element'
tp88
sI81
(S'/Users/jlantz/dev/CumulusCI/cumulusci/salesforce_api/tests/test_metadata.py'
g8
S'TestApiListMetadata.test_process_response_status_pending'
tp89
sI82
(S'/Users/jlantz/dev/CumulusCI/cumulusci/salesforce_api/tests/test_metadata.py'
g8
S'TestApiRetrieveInstalledPackages.test_build_endpoint_url'
tp90
sI83
(S'/Users/jlantz/dev/CumulusCI/cumulusci/salesforce_api/tests/test_metadata.py'
g8
S'TestApiRetrieveInstalledPackages.test_build_endpoint_url_apiversion'
tp91
sI84
(S'/Users/jlantz/dev/CumulusCI/cumulusci/salesforce_api/tests/test_metadata.py'
g8
S'TestApiRetrieveInstalledPackages.test_build_endpoint_url_mydomain'
tp92
sI85
(S'/Users/jlantz/dev/CumulusCI/cumulusci/salesforce_api/tests/test_metadata.py'
g8
S'TestApiRetrieveInstalledPackages.test_build_envelope_result'
tp93
sI86
(S'/Users/jlantz/dev/CumulusCI/cumulusci/salesforce_api/tests/test_metadata.py'
g8
S'TestApiRetrieveInstalledPackages.test_build_envelope_start'
tp94
sI87
(S'/Users/jlantz/dev/CumulusCI/cumulusci/salesforce_api/tests/test_metadata.py'
g8
S'TestApiRetrieveInstalledPackages.test_build_envelope_status'
tp95
sI88
(S'/Users/jlantz/dev/CumulusCI/cumulusci/salesforce_api/tests/test_metadata.py'
g8
S'TestApiRetrieveInstalledPackages.test_build_headers'
tp96
sI89
(S'/Users/jlantz/dev/CumulusCI/cumulusci/salesforce_api/tests/test_metadata.py'
g8
S'TestApiRetrieveInstalledPackages.test_call_faultcode'
tp97
sI90
(S'/Users/jlantz/dev/CumulusCI/cumulusci/salesforce_api/tests/test_metadata.py'
g8
S'TestApiRetrieveInstalledPackages.test_call_success'
tp98
sI91
(S'/Users/jlantz/dev/CumulusCI/cumulusci/salesforce_api/tests/test_metadata.py'
g8
S'TestApiRetrieveInstalledPackages.test_get_check_interval'
tp99
sI92
(S'/Users/jlantz/dev/CumulusCI/cumulusci/salesforce_api/tests/test_metadata.py'
g8
S'TestApiRetrieveInstalledPackages.test_get_element_value'
tp100
sI93
(S'/Users/jlantz/dev/CumulusCI/cumulusci/salesforce_api/tests/test_metadata.py'
g8
S'TestApiRetrieveInstalledPackages.test_get_element_value_empty'
tp101
sI94
(S'/Users/jlantz/dev/CumulusCI/cumulusci/salesforce_api/tests/test_metadata.py'
g8
S'TestApiRetrieveInstalledPackages.test_get_element_value_not_found'
tp102
sI95
(S'/Users/jlantz/dev/CumulusCI/cumulusci/salesforce_api/tests/test_metadata.py'
g8
S'TestApiRetrieveInstalledPackages.test_get_response_faultcode'
tp103
sI96
(S'/Users/jlantz/dev/CumulusCI/cumulusci/salesforce_api/tests/test_metadata.py'
g8
S'TestApiRetrieveInstalledPackages.test_get_response_faultcode_and_string'
tp104
sI97
(S'/Users/jlantz/dev/CumulusCI/cumulusci/salesforce_api/tests/test_metadata.py'
g8
S'TestApiRetrieveInstalledPackages.test_get_response_faultcode_invalid_session_no_refresh'
tp105
sI98
(S'/Users/jlantz/dev/CumulusCI/cumulusci/salesforce_api/tests/test_metadata.py'
g8
S'TestApiRetrieveInstalledPackages.test_get_response_faultcode_invalid_session_refresh'
tp106
sI99
(S'/Users/jlantz/dev/CumulusCI/cumulusci/salesforce_api/tests/test_metadata.py'
g8
S'TestApiRetrieveInstalledPackages.test_get_response_start_error_500'
tp107
sI100
(S'/Users/jlantz/dev/CumulusCI/cumulusci/salesforce_api/tests/test_metadata.py'
g8
S'TestApiRetrieveInstalledPackages.test_get_response_status_error_500'
tp108
sI101
(S'/Users/jlantz/dev/CumulusCI/cumulusci/salesforce_api/tests/test_metadata.py'
g8
S'TestApiRetrieveInstalledPackages.test_get_response_status_loop_twice'
tp109
sI102
(S'/Users/jlantz/dev/CumulusCI/cumulusci/salesforce_api/tests/test_metadata.py'
g8
S'TestApiRetrieveInstalledPackages.test_get_response_status_no_loop'
tp110
sI103
(S'/Users/jlantz/dev/CumulusCI/cumulusci/salesforce_api/tests/test_metadata.py'
g8
S'TestApiRetrieveInstalledPackages.test_init'
tp111
sI104
(S'/Users/jlantz/dev/CumulusCI/cumulusci/salesforce_api/tests/test_metadata.py'
g8
S'TestApiRetrieveInstalledPackages.test_process_response_status_done_is_true'
tp112
sI105
(S'/Users/jlantz/dev/CumulusCI/cumulusci/salesforce_api/tests/test_metadata.py'
g8
S'TestApiRetrieveInstalledPackages.test_process_response_status_in_progress'
tp113
sI106
(S'/Users/jlantz/dev/CumulusCI/cumulusci/salesforce_api/tests/test_metadata.py'
g8
S'TestApiRetrieveInstalledPackages.test_process_response_status_in_progress_state_detail'
tp114
sI107
(S'/Users/jlantz/dev/CumulusCI/cumulusci/salesforce_api/tests/test_metadata.py'
g8
S'TestApiRetrieveInstalledPackages.test_process_response_status_no_done_element'
tp115
sI108
(S'/Users/jlantz/dev/CumulusCI/cumulusci/salesforce_api/tests/test_metadata.py'
g8
S'TestApiRetrieveInstalledPackages.test_process_response_status_pending'
tp116
sI109
(S'/Users/jlantz/dev/CumulusCI/cumulusci/salesforce_api/tests/test_metadata.py'
g8
S'TestApiRetrievePackaged.test_build_endpoint_url'
tp117
sI110
(S'/Users/jlantz/dev/CumulusCI/cumulusci/salesforce_api/tests/test_metadata.py'
g8
S'TestApiRetrievePackaged.test_build_endpoint_url_apiversion'
tp118
sI111
(S'/Users/jlantz/dev/CumulusCI/cumulusci/salesforce_api/tests/test_metadata.py'
g8
S'TestApiRetrievePackaged.test_build_endpoint_url_mydomain'
tp119
sI112
(S'/Users/jlantz/dev/CumulusCI/cumulusci/salesforce_api/tests/test_metadata.py'
g8
S'TestApiRetrievePackaged.test_build_envelope_result'
tp120
sI113
(S'/Users/jlantz/dev/CumulusCI/cumulusci/salesforce_api/tests/test_metadata.py'
g8
S'TestApiRetrievePackaged.test_build_envelope_start'
tp121
sI114
(S'/Users/jlantz/dev/CumulusCI/cumulusci/salesforce_api/tests/test_metadata.py'
g8
S'TestApiRetrievePackaged.test_build_envelope_status'
tp122
sI115
(S'/Users/jlantz/dev/CumulusCI/cumulusci/salesforce_api/tests/test_metadata.py'
g8
S'TestApiRetrievePackaged.test_build_headers'
tp123
sI116
(S'/Users/jlantz/dev/CumulusCI/cumulusci/salesforce_api/tests/test_metadata.py'
g8
S'TestApiRetrievePackaged.test_call_faultcode'
tp124
sI117
(S'/Users/jlantz/dev/CumulusCI/cumulusci/salesforce_api/tests/test_metadata.py'
g8
S'TestApiRetrievePackaged.test_call_success'
tp125
sI118
(S'/Users/jlantz/dev/CumulusCI/cumulusci/salesforce_api/tests/test_metadata.py'
g8
S'TestApiRetrievePackaged.test_get_check_interval'
tp126
sI119
(S'/Users/jlantz/dev/CumulusCI/cumulusci/salesforce_api/tests/test_metadata.py'
g8
S'TestApiRetrievePackaged.test_get_element_value'
tp127
sI120
(S'/Users/jlantz/dev/CumulusCI/cumulusci/salesforce_api/tests/test_metadata.py'
g8
S'TestApiRetrievePackaged.test_get_element_value_empty'
tp128
sI121
(S'/Users/jlantz/dev/CumulusCI/cumulusci/salesforce_api/tests/test_metadata.py'
g8
S'TestApiRetrievePackaged.test_get_element_value_not_found'
tp129
sI122
(S'/Users/jlantz/dev/CumulusCI/cumulusci/salesforce_api/tests/test_metadata.py'
g8
S'TestApiRetrievePackaged.test_get_response_faultcode'
tp130
sI123
(S'/Users/jlantz/dev/CumulusCI/cumulusci/salesforce_api/tests/test_metadata.py'
g8
S'TestApiRetrievePackaged.test_get_response_faultcode_and_string'
tp131
sI124
(S'/Users/jlantz/dev/CumulusCI/cumulusci/salesforce_api/tests/test_metadata.py'
g8
S'TestApiRetrievePackaged.test_get_response_faultcode_invalid_session_no_refresh'
tp132
sI125
(S'/Users/jlantz/dev/CumulusCI/cumulusci/salesforce_api/tests/test_metadata.py'
g8
S'TestApiRetrievePackaged.test_get_response_faultcode_invalid_session_refresh'
tp133
sI126
(S'/Users/jlantz/dev/CumulusCI/cumulusci/salesforce_api/tests/test_metadata.py'
g8
S'TestApiRetrievePackaged.test_get_response_start_error_500'
tp134
sI127
(S'/Users/jlantz/dev/CumulusCI/cumulusci/salesforce_api/tests/test_metadata.py'
g8
S'TestApiRetrievePackaged.test_get_response_status_error_500'
tp135
sI128
(S'/Users/jlantz/dev/CumulusCI/cumulusci/salesforce_api/tests/test_metadata.py'
g8
S'TestApiRetrievePackaged.test_get_response_status_loop_twice'
tp136
sI129
(S'/Users/jlantz/dev/CumulusCI/cumulusci/salesforce_api/tests/test_metadata.py'
g8
S'TestApiRetrievePackaged.test_get_response_status_no_loop'
tp137
sI130
(S'/Users/jlantz/dev/CumulusCI/cumulusci/salesforce_api/tests/test_metadata.py'
g8
S'TestApiRetrievePackaged.test_init'
tp138
sI131
(S'/Users/jlantz/dev/CumulusCI/cumulusci/salesforce_api/tests/test_metadata.py'
g8
S'TestApiRetrievePackaged.test_process_response_status_done_is_true'
tp139
sI132
(S'/Users/jlantz/dev/CumulusCI/cumulusci/salesforce_api/tests/test_metadata.py'
g8
S'TestApiRetrievePackaged.test_process_response_status_in_progress'
tp140
sI133
(S'/Users/jlantz/dev/CumulusCI/cumulusci/salesforce_api/tests/test_metadata.py'
g8
S'TestApiRetrievePackaged.test_process_response_status_in_progress_state_detail'
tp141
sI134
(S'/Users/jlantz/dev/CumulusCI/cumulusci/salesforce_api/tests/test_metadata.py'
g8
S'TestApiRetrievePackaged.test_process_response_status_no_done_element'
tp142
sI135
(S'/Users/jlantz/dev/CumulusCI/cumulusci/salesforce_api/tests/test_metadata.py'
g8
S'TestApiRetrievePackaged.test_process_response_status_pending'
tp143
sI136
(S'/Users/jlantz/dev/CumulusCI/cumulusci/salesforce_api/tests/test_metadata.py'
g8
S'TestApiRetrieveUnpackaged.test_build_endpoint_url'
tp144
sI137
(S'/Users/jlantz/dev/CumulusCI/cumulusci/salesforce_api/tests/test_metadata.py'
g8
S'TestApiRetrieveUnpackaged.test_build_endpoint_url_apiversion'
tp145
sI138
(S'/Users/jlantz/dev/CumulusCI/cumulusci/salesforce_api/tests/test_metadata.py'
g8
S'TestApiRetrieveUnpackaged.test_build_endpoint_url_mydomain'
tp146
sI139
(S'/Users/jlantz/dev/CumulusCI/cumulusci/salesforce_api/tests/test_metadata.py'
g8
S'TestApiRetrieveUnpackaged.test_build_envelope_result'
tp147
sI140
(S'/Users/jlantz/dev/CumulusCI/cumulusci/salesforce_api/tests/test_metadata.py'
g8
S'TestApiRetrieveUnpackaged.test_build_envelope_start'
tp148
sI141
(S'/Users/jlantz/dev/CumulusCI/cumulusci/salesforce_api/tests/test_metadata.py'
g8
S'TestApiRetrieveUnpackaged.test_build_envelope_status'
tp149
sI142
(S'/Users/jlantz/dev/CumulusCI/cumulusci/salesforce_api/tests/test_metadata.py'
g8
S'TestApiRetrieveUnpackaged.test_build_headers'
tp150
sI143
(S'/Users/jlantz/dev/CumulusCI/cumulusci/salesforce_api/tests/test_metadata.py'
g8
S'TestApiRetrieveUnpackaged.test_call_faultcode'
tp151
sI144
(S'/Users/jlantz/dev/CumulusCI/cumulusci/salesforce_api/tests/test_metadata.py'
g8
S'TestApiRetrieveUnpackaged.test_call_success'
tp152
sI145
(S'/Users/jlantz/dev/CumulusCI/cumulusci/salesforce_api/tests/test_metadata.py'
g8
S'TestApiRetrieveUnpackaged.test_get_check_interval'
tp153
sI146
(S'/Users/jlantz/dev/CumulusCI/cumulusci/salesforce_api/tests/test_metadata.py'
g8
S'TestApiRetrieveUnpackaged.test_get_element_value'
tp154
sI147
(S'/Users/jlantz/dev/CumulusCI/cumulusci/salesforce_api/tests/test_metadata.py'
g8
S'TestApiRetrieveUnpackaged.test_get_element_value_empty'
tp155
sI148
(S'/Users/jlantz/dev/CumulusCI/cumulusci/salesforce_api/tests/test_metadata.py'
g8
S'TestApiRetrieveUnpackaged.test_get_element_value_not_found'
tp156
sI149
(S'/Users/jlantz/dev/CumulusCI/cumulusci/salesforce_api/tests/test_metadata.py'
g8
S'TestApiRetrieveUnpackaged.test_get_response_faultcode'
tp157
sI150
(S'/Users/jlantz/dev/CumulusCI/cumulusci/salesforce_api/tests/test_metadata.py'
g8
S'TestApiRetrieveUnpackaged.test_get_response_faultcode_and_string'
tp158
sI151
(S'/Users/jlantz/dev/CumulusCI/cumulusci/salesforce_api/tests/test_metadata.py'
g8
S'TestApiRetrieveUnpackaged.test_get_response_faultcode_invalid_session_no_refresh'
tp159
sI152
(S'/Users/jlantz/dev/CumulusCI/cumulusci/salesforce_api/tests/test_metadata.py'
g8
S'TestApiRetrieveUnpackaged.test_get_response_faultcode_invalid_session_refresh'
tp160
sI153
(S'/Users/jlantz/dev/CumulusCI/cumulusci/salesforce_api/tests/test_metadata.py'
g8
S'TestApiRetrieveUnpackaged.test_get_response_start_error_500'
tp161
sI154
(S'/Users/jlantz/dev/CumulusCI/cumulusci/salesforce_api/tests/test_metadata.py'
g8
S'TestApiRetrieveUnpackaged.test_get_response_status_error_500'
tp162
sI155
(S'/Users/jlantz/dev/CumulusCI/cumulusci/salesforce_api/tests/test_metadata.py'
g8
S'TestApiRetrieveUnpackaged.test_get_response_status_loop_twice'
tp163
sI156
(S'/Users/jlantz/dev/CumulusCI/cumulusci/salesforce_api/tests/test_metadata.py'
g8
S'TestApiRetrieveUnpackaged.test_get_response_status_no_loop'
tp164
sI157
(S'/Users/jlantz/dev/CumulusCI/cumulusci/salesforce_api/tests/test_metadata.py'
g8
S'TestApiRetrieveUnpackaged.test_init'
tp165
sI158
(S'/Users/jlantz/dev/CumulusCI/cumulusci/salesforce_api/tests/test_metadata.py'
g8
S'TestApiRetrieveUnpackaged.test_process_response_status_done_is_true'
tp166
sI159
(S'/Users/jlantz/dev/CumulusCI/cumulusci/salesforce_api/tests/test_metadata.py'
g8
S'TestApiRetrieveUnpackaged.test_process_response_status_in_progress'
tp167
sI160
(S'/Users/jlantz/dev/CumulusCI/cumulusci/salesforce_api/tests/test_metadata.py'
g8
S'TestApiRetrieveUnpackaged.test_process_response_status_in_progress_state_detail'
tp168
sI161
(S'/Users/jlantz/dev/CumulusCI/cumulusci/salesforce_api/tests/test_metadata.py'
g8
S'TestApiRetrieveUnpackaged.test_process_response_status_no_done_element'
tp169
sI162
(S'/Users/jlantz/dev/CumulusCI/cumulusci/salesforce_api/tests/test_metadata.py'
g8
S'TestApiRetrieveUnpackaged.test_process_response_status_pending'
tp170
sI163
(S'/Users/jlantz/dev/CumulusCI/cumulusci/salesforce_api/tests/test_metadata.py'
g8
S'TestBaseMetadataApiCall.test_build_endpoint_url'
tp171
sI164
(S'/Users/jlantz/dev/CumulusCI/cumulusci/salesforce_api/tests/test_metadata.py'
g8
S'TestBaseMetadataApiCall.test_build_endpoint_url_apiversion'
tp172
sI165
(S'/Users/jlantz/dev/CumulusCI/cumulusci/salesforce_api/tests/test_metadata.py'
g8
S'TestBaseMetadataApiCall.test_build_endpoint_url_mydomain'
tp173
sI166
(S'/Users/jlantz/dev/CumulusCI/cumulusci/salesforce_api/tests/test_metadata.py'
g8
S'TestBaseMetadataApiCall.test_build_envelope_result'
tp174
sI167
(S'/Users/jlantz/dev/CumulusCI/cumulusci/salesforce_api/tests/test_metadata.py'
g8
S'TestBaseMetadataApiCall.test_build_envelope_result_no_envelope'
tp175
sI168
(S'/Users/jlantz/dev/CumulusCI/cumulusci/salesforce_api/tests/test_metadata.py'
g8
S'TestBaseMetadataApiCall.test_build_envelope_start'
tp176
sI169
(S'/Users/jlantz/dev/CumulusCI/cumulusci/salesforce_api/tests/test_metadata.py'
g8
S'TestBaseMetadataApiCall.test_build_envelope_start_no_envelope'
tp177
sI170
(S'/Users/jlantz/dev/CumulusCI/cumulusci/salesforce_api/tests/test_metadata.py'
g8
S'TestBaseMetadataApiCall.test_build_envelope_status'
tp178
sI171
(S'/Users/jlantz/dev/CumulusCI/cumulusci/salesforce_api/tests/test_metadata.py'
g8
S'TestBaseMetadataApiCall.test_build_envelope_status_no_envelope'
tp179
sI172
(S'/Users/jlantz/dev/CumulusCI/cumulusci/salesforce_api/tests/test_metadata.py'
g8
S'TestBaseMetadataApiCall.test_build_headers'
tp180
sI173
(S'/Users/jlantz/dev/CumulusCI/cumulusci/salesforce_api/tests/test_metadata.py'
g8
S'TestBaseMetadataApiCall.test_call_faultcode'
tp181
sI174
(S'/Users/jlantz/dev/CumulusCI/cumulusci/salesforce_api/tests/test_metadata.py'
g8
S'TestBaseMetadataApiCall.test_call_success'
tp182
sI175
(S'/Users/jlantz/dev/CumulusCI/cumulusci/salesforce_api/tests/test_metadata.py'
g8
S'TestBaseMetadataApiCall.test_get_check_interval'
tp183
sI176
(S'/Users/jlantz/dev/CumulusCI/cumulusci/salesforce_api/tests/test_metadata.py'
g8
S'TestBaseMetadataApiCall.test_get_element_value'
tp184
sI177
(S'/Users/jlantz/dev/CumulusCI/cumulusci/salesforce_api/tests/test_metadata.py'
g8
S'TestBaseMetadataApiCall.test_get_element_value_empty'
tp185
sI178
(S'/Users/jlantz/dev/CumulusCI/cumulusci/salesforce_api/tests/test_metadata.py'
g8
S'TestBaseMetadataApiCall.test_get_element_value_not_found'
tp186
sI179
(S'/Users/jlantz/dev/CumulusCI/cumulusci/salesforce_api/tests/test_metadata.py'
g8
S'TestBaseMetadataApiCall.test_get_response_faultcode'
tp187
sI180
(S'/Users/jlantz/dev/CumulusCI/cumulusci/salesforce_api/tests/test_metadata.py'
g8
S'TestBaseMetadataApiCall.test_get_response_faultcode_and_string'
tp188
sI181
(S'/Users/jlantz/dev/CumulusCI/cumulusci/salesforce_api/tests/test_metadata.py'
g8
S'TestBaseMetadataApiCall.test_get_response_faultcode_invalid_session_no_refresh'
tp189
sI182
(S'/Users/jlantz/dev/CumulusCI/cumulusci/salesforce_api/tests/test_metadata.py'
g8
S'TestBaseMetadataApiCall.test_get_response_faultcode_invalid_session_refresh'
tp190
sI183
(S'/Users/jlantz/dev/CumulusCI/cumulusci/salesforce_api/tests/test_metadata.py'
g8
S'TestBaseMetadataApiCall.test_get_response_no_start_env'
tp191
sI184
(S'/Users/jlantz/dev/CumulusCI/cumulusci/salesforce_api/tests/test_metadata.py'
g8
S'TestBaseMetadataApiCall.test_get_response_no_status'
tp192
sI185
(S'/Users/jlantz/dev/CumulusCI/cumulusci/salesforce_api/tests/test_metadata.py'
g8
S'TestBaseMetadataApiCall.test_get_response_start_error_500'
tp193
sI186
(S'/Users/jlantz/dev/CumulusCI/cumulusci/salesforce_api/tests/test_metadata.py'
g8
S'TestBaseMetadataApiCall.test_get_response_status_error_500'
tp194
sI187
(S'/Users/jlantz/dev/CumulusCI/cumulusci/salesforce_api/tests/test_metadata.py'
g8
S'TestBaseMetadataApiCall.test_get_response_status_loop_twice'
tp195
sI188
(S'/Users/jlantz/dev/CumulusCI/cumulusci/salesforce_api/tests/test_metadata.py'
g8
S'TestBaseMetadataApiCall.test_get_response_status_no_loop'
tp196
sI189
(S'/Users/jlantz/dev/CumulusCI/cumulusci/salesforce_api/tests/test_metadata.py'
g8
S'TestBaseMetadataApiCall.test_init'
tp197
sI190
(S'/Users/jlantz/dev/CumulusCI/cumulusci/salesforce_api/tests/test_metadata.py'
g8
S'TestBaseMetadataApiCall.test_process_response_status_done_is_true'
tp198
sI191
(S'/Users/jlantz/dev/CumulusCI/cumulusci/salesforce_api/tests/test_metadata.py'
g8
S'TestBaseMetadataApiCall.test_process_response_status_in_progress'
tp199
sI192
(S'/Users/jlantz/dev/CumulusCI/cumulusci/salesforce_api/tests/test_metadata.py'
g8
S'TestBaseMetadataApiCall.test_process_response_status_in_progress_state_detail'
tp200
sI193
(S'/Users/jlantz/dev/CumulusCI/cumulusci/salesforce_api/tests/test_metadata.py'
g8
S'TestBaseMetadataApiCall.test_process_response_status_no_done_element'
tp201
sI194
(S'/Users/jlantz/dev/CumulusCI/cumulusci/salesforce_api/tests/test_metadata.py'
g8
S'TestBaseMetadataApiCall.test_process_response_status_pending'
tp202
sI195
(S'/Users/jlantz/dev/CumulusCI/cumulusci/salesforce_api/tests/test_metadata.py'
S'cumulusci.salesforce_api.tests.test_metadata'
p203
S'TestBaseMetadataApiCall.test_get_response_no_status_immediate'
tp204
sI196
(S'/Users/jlantz/dev/CumulusCI/cumulusci/salesforce_api/tests/test_metadata.py'
g203
S'TestBaseMetadataApiCall.test_get_response_no_status_loop_twice'
tp205
sI197
(S'/Users/jlantz/dev/CumulusCI/cumulusci/salesforce_api/tests/test_metadata.py'
g203
S'TestBaseMetadataApiCall.test_get_response_no_status_or_result'
tp206
sI198
(S'/Users/jlantz/dev/CumulusCI/cumulusci/salesforce_api/tests/test_metadata.py'
S'cumulusci.salesforce_api.tests.test_metadata'
S'TestApiRetrieveInstalledPackages.test_process_response_no_zipstr'
tp207
sI199
(S'/Users/jlantz/dev/CumulusCI/cumulusci/salesforce_api/tests/test_metadata.py'
S'cumulusci.salesforce_api.tests.test_metadata'
Ntp208
ss.